target datalayout = "e-m:e-p270:32:32-p271:32:32-p272:64:64-i64:64-i128:128-f80:128-n8:16:32:64-S128"
target triple = "x86_64-pc-linux-gnu"

%struct.yyguts_t = type { ptr, ptr, ptr, i64, i64, ptr, i8, i32, i32, ptr, i32, i32, i32, i32, i32, ptr, i32, ptr, i32, i32, ptr, i32, i32, ptr }
%struct.yy_buffer_state = type { ptr, ptr, ptr, i32, i32, i32, i32, i32, i32, i32, i32, i32 }

; Function Attrs: nounwind uwtable
define internal void @yy_load_buffer_state(ptr noundef %0) #0 {
  %2 = alloca ptr, align 8
  %3 = alloca ptr, align 8
  store ptr %0, ptr %2, align 8
  %4 = load ptr, ptr %2, align 8
  store ptr %4, ptr %3, align 8
  %5 = load ptr, ptr %3, align 8
  %6 = getelementptr inbounds %struct.yyguts_t, ptr %5, i32 0, i32 5
  %7 = load ptr, ptr %6, align 8
  %8 = load ptr, ptr %3, align 8
  %9 = getelementptr inbounds %struct.yyguts_t, ptr %8, i32 0, i32 3
  %10 = load i64, ptr %9, align 8
  %11 = getelementptr inbounds ptr, ptr %7, i64 %10
  %12 = load ptr, ptr %11, align 8
  %13 = getelementptr inbounds %struct.yy_buffer_state, ptr %12, i32 0, i32 4
  %14 = load i32, ptr %13, align 4
  %15 = load ptr, ptr %3, align 8
  %16 = getelementptr inbounds %struct.yyguts_t, ptr %15, i32 0, i32 7
  store i32 %14, ptr %16, align 4
  %17 = load ptr, ptr %3, align 8
  %18 = getelementptr inbounds %struct.yyguts_t, ptr %17, i32 0, i32 5
  %19 = load ptr, ptr %18, align 8
  %20 = load ptr, ptr %3, align 8
  %21 = getelementptr inbounds %struct.yyguts_t, ptr %20, i32 0, i32 3
  %22 = load i64, ptr %21, align 8
  %23 = getelementptr inbounds ptr, ptr %19, i64 %22
  %24 = load ptr, ptr %23, align 8
  %25 = getelementptr inbounds %struct.yy_buffer_state, ptr %24, i32 0, i32 2
  %26 = load ptr, ptr %25, align 8
  %27 = load ptr, ptr %3, align 8
  %28 = getelementptr inbounds %struct.yyguts_t, ptr %27, i32 0, i32 9
  store ptr %26, ptr %28, align 8
  %29 = load ptr, ptr %3, align 8
  %30 = getelementptr inbounds %struct.yyguts_t, ptr %29, i32 0, i32 20
  store ptr %26, ptr %30, align 8
  %31 = load ptr, ptr %3, align 8
  %32 = getelementptr inbounds %struct.yyguts_t, ptr %31, i32 0, i32 5
  %33 = load ptr, ptr %32, align 8
  %34 = load ptr, ptr %3, align 8
  %35 = getelementptr inbounds %struct.yyguts_t, ptr %34, i32 0, i32 3
  %36 = load i64, ptr %35, align 8
  %37 = getelementptr inbounds ptr, ptr %33, i64 %36
  %38 = load ptr, ptr %37, align 8
  %39 = getelementptr inbounds %struct.yy_buffer_state, ptr %38, i32 0, i32 0
  %40 = load ptr, ptr %39, align 8
  %41 = load ptr, ptr %3, align 8
  %42 = getelementptr inbounds %struct.yyguts_t, ptr %41, i32 0, i32 1
  store ptr %40, ptr %42, align 8
  %43 = load ptr, ptr %3, align 8
  %44 = getelementptr inbounds %struct.yyguts_t, ptr %43, i32 0, i32 9
  %45 = load ptr, ptr %44, align 8
  %46 = load i8, ptr %45, align 1
  %47 = load ptr, ptr %3, align 8
  %48 = getelementptr inbounds %struct.yyguts_t, ptr %47, i32 0, i32 6
  store i8 %46, ptr %48, align 8
  ret void
}

; Function Attrs: nounwind uwtable
define void @yy_flush_buffer(ptr noundef %0, ptr noundef %1) #0 {
  %3 = alloca ptr, align 8
  %4 = alloca ptr, align 8
  %5 = alloca ptr, align 8
  store ptr %0, ptr %3, align 8
  store ptr %1, ptr %4, align 8
  %6 = load ptr, ptr %4, align 8
  store ptr %6, ptr %5, align 8
  %7 = load ptr, ptr %3, align 8
  %8 = icmp ne ptr %7, null
  br i1 %8, label %10, label %9

9:                                                ; preds = %2
  br label %51

10:                                               ; preds = %2
  %11 = load ptr, ptr %3, align 8
  %12 = getelementptr inbounds %struct.yy_buffer_state, ptr %11, i32 0, i32 4
  store i32 0, ptr %12, align 4
  %13 = load ptr, ptr %3, align 8
  %14 = getelementptr inbounds %struct.yy_buffer_state, ptr %13, i32 0, i32 1
  %15 = load ptr, ptr %14, align 8
  %16 = getelementptr inbounds i8, ptr %15, i64 0
  store i8 0, ptr %16, align 1
  %17 = load ptr, ptr %3, align 8
  %18 = getelementptr inbounds %struct.yy_buffer_state, ptr %17, i32 0, i32 1
  %19 = load ptr, ptr %18, align 8
  %20 = getelementptr inbounds i8, ptr %19, i64 1
  store i8 0, ptr %20, align 1
  %21 = load ptr, ptr %3, align 8
  %22 = getelementptr inbounds %struct.yy_buffer_state, ptr %21, i32 0, i32 1
  %23 = load ptr, ptr %22, align 8
  %24 = getelementptr inbounds i8, ptr %23, i64 0
  %25 = load ptr, ptr %3, align 8
  %26 = getelementptr inbounds %struct.yy_buffer_state, ptr %25, i32 0, i32 2
  store ptr %24, ptr %26, align 8
  %27 = load ptr, ptr %3, align 8
  %28 = getelementptr inbounds %struct.yy_buffer_state, ptr %27, i32 0, i32 7
  store i32 1, ptr %28, align 8
  %29 = load ptr, ptr %3, align 8
  %30 = getelementptr inbounds %struct.yy_buffer_state, ptr %29, i32 0, i32 11
  store i32 0, ptr %30, align 8
  %31 = load ptr, ptr %3, align 8
  %32 = load ptr, ptr %5, align 8
  %33 = getelementptr inbounds %struct.yyguts_t, ptr %32, i32 0, i32 5
  %34 = load ptr, ptr %33, align 8
  %35 = icmp ne ptr %34, null
  br i1 %35, label %36, label %45

36:                                               ; preds = %10
  %37 = load ptr, ptr %5, align 8
  %38 = getelementptr inbounds %struct.yyguts_t, ptr %37, i32 0, i32 5
  %39 = load ptr, ptr %38, align 8
  %40 = load ptr, ptr %5, align 8
  %41 = getelementptr inbounds %struct.yyguts_t, ptr %40, i32 0, i32 3
  %42 = load i64, ptr %41, align 8
  %43 = getelementptr inbounds ptr, ptr %39, i64 %42
  %44 = load ptr, ptr %43, align 8
  br label %46

45:                                               ; preds = %10
  br label %46

46:                                               ; preds = %45, %36
  %47 = phi ptr [ %44, %36 ], [ null, %45 ]
  %48 = icmp eq ptr %31, %47
  br i1 %48, label %49, label %51

49:                                               ; preds = %46
  %50 = load ptr, ptr %4, align 8
  call void @yy_load_buffer_state(ptr noundef %50)
  br label %51

51:                                               ; preds = %49, %46, %9
  ret void
}

; Function Attrs: nounwind uwtable
define internal void @yy_init_buffer(ptr noundef %0, ptr noundef %1, ptr noundef %2) #0 {
  %4 = alloca ptr, align 8
  %5 = alloca ptr, align 8
  %6 = alloca ptr, align 8
  %7 = alloca i32, align 4
  %8 = alloca ptr, align 8
  store ptr %0, ptr %4, align 8
  store ptr %1, ptr %5, align 8
  store ptr %2, ptr %6, align 8
  %9 = call ptr @__errno_location() #13
  %10 = load i32, ptr %9, align 4
  store i32 %10, ptr %7, align 4
  %11 = load ptr, ptr %6, align 8
  store ptr %11, ptr %8, align 8
  %12 = load ptr, ptr %4, align 8
  %13 = load ptr, ptr %6, align 8
  call void @yy_flush_buffer(ptr noundef %12, ptr noundef %13)
  %14 = load ptr, ptr %5, align 8
  %15 = load ptr, ptr %4, align 8
  %16 = getelementptr inbounds %struct.yy_buffer_state, ptr %15, i32 0, i32 0
  store ptr %14, ptr %16, align 8
  %17 = load ptr, ptr %4, align 8
  %18 = getelementptr inbounds %struct.yy_buffer_state, ptr %17, i32 0, i32 10
  store i32 1, ptr %18, align 4
  %19 = load ptr, ptr %4, align 8
  %20 = load ptr, ptr %8, align 8
  %21 = getelementptr inbounds %struct.yyguts_t, ptr %20, i32 0, i32 5
  %22 = load ptr, ptr %21, align 8
  %23 = icmp ne ptr %22, null
  br i1 %23, label %24, label %33

24:                                               ; preds = %3
  %25 = load ptr, ptr %8, align 8
  %26 = getelementptr inbounds %struct.yyguts_t, ptr %25, i32 0, i32 5
  %27 = load ptr, ptr %26, align 8
  %28 = load ptr, ptr %8, align 8
  %29 = getelementptr inbounds %struct.yyguts_t, ptr %28, i32 0, i32 3
  %30 = load i64, ptr %29, align 8
  %31 = getelementptr inbounds ptr, ptr %27, i64 %30
  %32 = load ptr, ptr %31, align 8
  br label %34

33:                                               ; preds = %3
  br label %34

34:                                               ; preds = %33, %24
  %35 = phi ptr [ %32, %24 ], [ null, %33 ]
  %36 = icmp ne ptr %19, %35
  br i1 %36, label %37, label %42

37:                                               ; preds = %34
  %38 = load ptr, ptr %4, align 8
  %39 = getelementptr inbounds %struct.yy_buffer_state, ptr %38, i32 0, i32 8
  store i32 1, ptr %39, align 4
  %40 = load ptr, ptr %4, align 8
  %41 = getelementptr inbounds %struct.yy_buffer_state, ptr %40, i32 0, i32 9
  store i32 0, ptr %41, align 8
  br label %42

42:                                               ; preds = %37, %34
  %43 = load ptr, ptr %5, align 8
  %44 = icmp ne ptr %43, null
  br i1 %44, label %45, label %51

45:                                               ; preds = %42
  %46 = load ptr, ptr %5, align 8
  %47 = call i32 @fileno(ptr noundef %46) #12
  %48 = call i32 @isatty(i32 noundef %47) #12
  %49 = icmp sgt i32 %48, 0
  %50 = zext i1 %49 to i32
  br label %52

51:                                               ; preds = %42
  br label %52

52:                                               ; preds = %51, %45
  %53 = phi i32 [ %50, %45 ], [ 0, %51 ]
  %54 = load ptr, ptr %4, align 8
  %55 = getelementptr inbounds %struct.yy_buffer_state, ptr %54, i32 0, i32 6
  store i32 %53, ptr %55, align 4
  %56 = load i32, ptr %7, align 4
  %57 = call ptr @__errno_location() #13
  store i32 %56, ptr %57, align 4
  ret void
}