; Function Attrs: nounwind uwtable
define internal fastcc void @yy_init_buffer(ptr noundef %0, ptr noundef %1, ptr nocapture noundef %2) unnamed_addr #0 {
  %4 = tail call ptr @__errno_location() #33
  %5 = load i32, ptr %4, align 4
  %.not.i = icmp eq ptr %0, null
  br i1 %.not.i, label %yy_flush_buffer.exit, label %6

6:                                                ; preds = %3
  %7 = getelementptr inbounds i8, ptr %0, i64 28
  store i32 0, ptr %7, align 4
  %8 = getelementptr inbounds i8, ptr %0, i64 8
  %9 = load ptr, ptr %8, align 8
  store i8 0, ptr %9, align 1
  %10 = load ptr, ptr %8, align 8
  %11 = getelementptr inbounds i8, ptr %10, i64 1
  store i8 0, ptr %11, align 1
  %12 = load ptr, ptr %8, align 8
  %13 = getelementptr inbounds i8, ptr %0, i64 16
  store ptr %12, ptr %13, align 8
  %14 = getelementptr inbounds i8, ptr %0, i64 40
  store i32 1, ptr %14, align 8
  %15 = getelementptr inbounds i8, ptr %0, i64 56
  store i32 0, ptr %15, align 8
  %16 = getelementptr inbounds i8, ptr %2, i64 40
  %17 = load ptr, ptr %16, align 8
  %.not15.i = icmp eq ptr %17, null
  br i1 %.not15.i, label %23, label %18

18:                                               ; preds = %6
  %19 = getelementptr inbounds i8, ptr %2, i64 24
  %20 = load i64, ptr %19, align 8
  %21 = getelementptr inbounds ptr, ptr %17, i64 %20
  %22 = load ptr, ptr %21, align 8
  br label %23

23:                                               ; preds = %18, %6
  %24 = phi ptr [ %22, %18 ], [ null, %6 ]
  %25 = icmp eq ptr %24, %0
  br i1 %25, label %26, label %yy_flush_buffer.exit

26:                                               ; preds = %23
  %27 = getelementptr inbounds i8, ptr %2, i64 24
  %28 = load i64, ptr %27, align 8
  %29 = getelementptr inbounds ptr, ptr %17, i64 %28
  %30 = load ptr, ptr %29, align 8
  %31 = getelementptr inbounds i8, ptr %30, i64 28
  %32 = load i32, ptr %31, align 4
  %33 = getelementptr inbounds i8, ptr %2, i64 52
  store i32 %32, ptr %33, align 4
  %34 = load ptr, ptr %29, align 8
  %35 = getelementptr inbounds i8, ptr %34, i64 16
  %36 = load ptr, ptr %35, align 8
  %37 = getelementptr inbounds i8, ptr %2, i64 64
  store ptr %36, ptr %37, align 8
  %38 = getelementptr inbounds i8, ptr %2, i64 128
  store ptr %36, ptr %38, align 8
  %39 = load ptr, ptr %29, align 8
  %40 = load ptr, ptr %39, align 8
  %41 = getelementptr inbounds i8, ptr %2, i64 8
  store ptr %40, ptr %41, align 8
  %42 = load i8, ptr %36, align 1
  %43 = getelementptr inbounds i8, ptr %2, i64 48
  store i8 %42, ptr %43, align 8
  br label %yy_flush_buffer.exit

yy_flush_buffer.exit:                             ; preds = %3, %23, %26
  store ptr %1, ptr %0, align 8
  %44 = getelementptr inbounds i8, ptr %0, i64 52
  store i32 1, ptr %44, align 4
  %45 = getelementptr inbounds i8, ptr %2, i64 40
  %46 = load ptr, ptr %45, align 8
  %.not = icmp eq ptr %46, null
  br i1 %.not, label %52, label %47

47:                                               ; preds = %yy_flush_buffer.exit
  %48 = getelementptr inbounds i8, ptr %2, i64 24
  %49 = load i64, ptr %48, align 8
  %50 = getelementptr inbounds ptr, ptr %46, i64 %49
  %51 = load ptr, ptr %50, align 8
  br label %52

52:                                               ; preds = %yy_flush_buffer.exit, %47
  %53 = phi ptr [ %51, %47 ], [ null, %yy_flush_buffer.exit ]
  %.not17 = icmp eq ptr %53, %0
  br i1 %.not17, label %57, label %54

54:                                               ; preds = %52
  %55 = getelementptr inbounds i8, ptr %0, i64 44
  store i32 1, ptr %55, align 4
  %56 = getelementptr inbounds i8, ptr %0, i64 48
  store i32 0, ptr %56, align 8
  br label %57

57:                                               ; preds = %54, %52
  %.not18 = icmp eq ptr %1, null
  br i1 %.not18, label %63, label %58

58:                                               ; preds = %57
  %59 = tail call i32 @fileno(ptr noundef nonnull %1) #30
  %60 = tail call i32 @isatty(i32 noundef %59) #30
  %61 = icmp sgt i32 %60, 0
  %62 = zext i1 %61 to i32
  br label %63

63:                                               ; preds = %57, %58
  %64 = phi i32 [ %62, %58 ], [ 0, %57 ]
  %65 = getelementptr inbounds i8, ptr %0, i64 36
  store i32 %64, ptr %65, align 4
  store i32 %5, ptr %4, align 4
  ret void
}